target datalayout = "e-m:e-p270:32:32-p271:32:32-p272:64:64-i64:64-i128:128-f80:128-n8:16:32:64-S128"
target triple = "x86_64-pc-linux-gnu"

@hf_etc_pd_tristimulus_led_number = internal global i32 0, align 4
@hf_etc_pd_tristimulus_x = internal global i32 0, align 4
@hf_etc_pd_tristimulus_y = internal global i32 0, align 4
@hf_etc_pd_tristimulus_z = internal global i32 0, align 4

; Function Attrs: null_pointer_is_valid sspstrong uwtable
define internal void @rdm_proto_tree_add_numeric_item(ptr noundef %0, i32 noundef %1, ptr noundef %2, ptr noundef %3, i8 noundef zeroext %4) #1 {
  %6 = alloca ptr, align 8
  %7 = alloca i32, align 4
  %8 = alloca ptr, align 8
  %9 = alloca ptr, align 8
  %10 = alloca i8, align 1
  %11 = alloca i32, align 4
  store ptr %0, ptr %6, align 8
  store i32 %1, ptr %7, align 4
  store ptr %2, ptr %8, align 8
  store ptr %3, ptr %9, align 8
  store i8 %4, ptr %10, align 1
  call void @llvm.lifetime.start.p0(i64 4, ptr %11) #4
  %12 = load ptr, ptr %9, align 8
  %13 = load i32, ptr %12, align 4
  store i32 %13, ptr %11, align 4
  %14 = load ptr, ptr %6, align 8
  %15 = load i32, ptr %7, align 4
  %16 = load ptr, ptr %8, align 8
  %17 = load i32, ptr %11, align 4
  %18 = load i8, ptr %10, align 1
  %19 = zext i8 %18 to i32
  %20 = call ptr @proto_tree_add_item(ptr noundef %14, i32 noundef %15, ptr noundef %16, i32 noundef %17, i32 noundef %19, i32 noundef 0)
  %21 = load i8, ptr %10, align 1
  %22 = zext i8 %21 to i32
  %23 = load ptr, ptr %9, align 8
  %24 = load i32, ptr %23, align 4
  %25 = add i32 %24, %22
  store i32 %25, ptr %23, align 4
  call void @llvm.lifetime.end.p0(i64 4, ptr %11) #4
  ret void
}

; Function Attrs: null_pointer_is_valid sspstrong uwtable
define internal i32 @dissect_etc_pd_tristimulus(ptr noundef %0, i32 noundef %1, ptr noundef %2, i8 noundef zeroext %3) #1 {
  %5 = alloca ptr, align 8
  %6 = alloca i32, align 4
  %7 = alloca ptr, align 8
  %8 = alloca i8, align 1
  store ptr %0, ptr %5, align 8
  store i32 %1, ptr %6, align 4
  store ptr %2, ptr %7, align 8
  store i8 %3, ptr %8, align 1
  %9 = load i8, ptr %8, align 1
  %10 = zext i8 %9 to i32
  switch i32 %10, label %28 [
    i32 32, label %11
    i32 33, label %15
  ]

11:                                               ; preds = %4
  %12 = load ptr, ptr %7, align 8
  %13 = load i32, ptr @hf_etc_pd_tristimulus_led_number, align 4
  %14 = load ptr, ptr %5, align 8
  call void @rdm_proto_tree_add_numeric_item(ptr noundef %12, i32 noundef %13, ptr noundef %14, ptr noundef %6, i8 noundef zeroext 1)
  br label %28

15:                                               ; preds = %4
  %16 = load ptr, ptr %7, align 8
  %17 = load i32, ptr @hf_etc_pd_tristimulus_led_number, align 4
  %18 = load ptr, ptr %5, align 8
  call void @rdm_proto_tree_add_numeric_item(ptr noundef %16, i32 noundef %17, ptr noundef %18, ptr noundef %6, i8 noundef zeroext 1)
  %19 = load ptr, ptr %7, align 8
  %20 = load i32, ptr @hf_etc_pd_tristimulus_x, align 4
  %21 = load ptr, ptr %5, align 8
  call void @rdm_proto_tree_add_numeric_item(ptr noundef %19, i32 noundef %20, ptr noundef %21, ptr noundef %6, i8 noundef zeroext 4)
  %22 = load ptr, ptr %7, align 8
  %23 = load i32, ptr @hf_etc_pd_tristimulus_y, align 4
  %24 = load ptr, ptr %5, align 8
  call void @rdm_proto_tree_add_numeric_item(ptr noundef %22, i32 noundef %23, ptr noundef %24, ptr noundef %6, i8 noundef zeroext 4)
  %25 = load ptr, ptr %7, align 8
  %26 = load i32, ptr @hf_etc_pd_tristimulus_z, align 4
  %27 = load ptr, ptr %5, align 8
  call void @rdm_proto_tree_add_numeric_item(ptr noundef %25, i32 noundef %26, ptr noundef %27, ptr noundef %6, i8 noundef zeroext 4)
  br label %28

28:                                               ; preds = %4, %15, %11
  %29 = load i32, ptr %6, align 4
  ret i32 %29
}